target datalayout = "e-m:e-p270:32:32-p271:32:32-p272:64:64-i64:64-i128:128-f80:128-n8:16:32:64-S128"
target triple = "x86_64-pc-linux-gnu"

%struct.IDAMemRec = type { double, ptr, ptr, i32, double, double, ptr, i32, ptr, ptr, i32, ptr, ptr, i32, i32, double, double, ptr, i32, i32, i32, ptr, ptr, i32, ptr, ptr, ptr, i32, double, i32, i32, double, ptr, ptr, i32, ptr, ptr, i32, i32, i32, double, ptr, ptr, [6 x ptr], [6 x double], [6 x double], [6 x double], [6 x double], [6 x double], ptr, ptr, ptr, ptr, ptr, ptr, ptr, ptr, ptr, ptr, ptr, ptr, ptr, ptr, ptr, [6 x ptr], ptr, ptr, ptr, ptr, [6 x ptr], ptr, ptr, ptr, ptr, ptr, ptr, ptr, ptr, ptr, ptr, ptr, ptr, ptr, ptr, [6 x ptr], ptr, ptr, ptr, ptr, ptr, double, ptr, ptr, i32, i32, i32, i32, i32, i32, i32, double, double, double, i32, double, i32, i32, i32, i32, double, double, double, double, double, double, double, double, double, double, double, double, double, double, i32, i32, i32, i32, i32, i64, double, i32, i64, i64, i64, i64, i64, i64, i64, i64, i64, i64, i64, i64, i64, i64, i64, i64, i64, i64, i64, i64, i64, i64, i64, i64, ptr, ptr, ptr, i32, i32, i32, i32, i32, i32, i32, i32, i32, i32, i32, i32, i32, ptr, ptr, ptr, ptr, ptr, ptr, i32, i32, i32, i32, i32, i32, double, double, double, ptr, i32, ptr, ptr, double, double, double, ptr, ptr, ptr, double, double, i32, i32, i64, ptr, i32, i32, ptr, i32 }
%struct.IDASpilsMemRec = type { i32, i32, double, i32, i32, double, double, double, i64, i64, i64, i64, i64, i64, i64, i64, i64, i64, i64, i64, ptr, ptr, ptr, ptr, ptr, ptr, ptr, i64, ptr, ptr, ptr, ptr, i32, ptr, ptr }

@.str = private unnamed_addr constant [10 x i8] c"IDASSPILS\00", align 1
@.str.2 = private unnamed_addr constant [27 x i8] c"Integrator memory is NULL.\00", align 1
@.str.3 = private unnamed_addr constant [30 x i8] c"Linear solver memory is NULL.\00", align 1
@.str.15 = private unnamed_addr constant [21 x i8] c"IDASpilsGetWorkSpace\00", align 1

; Function Attrs: nounwind uwtable
define i32 @IDASpilsGetWorkSpace(ptr noundef %0, ptr noundef %1, ptr noundef %2) #0 {
  %4 = alloca i32, align 4
  %5 = alloca ptr, align 8
  %6 = alloca ptr, align 8
  %7 = alloca ptr, align 8
  %8 = alloca ptr, align 8
  %9 = alloca ptr, align 8
  %10 = alloca i32, align 4
  %11 = alloca i32, align 4
  store ptr %0, ptr %5, align 8, !tbaa !3
  store ptr %1, ptr %6, align 8, !tbaa !35
  store ptr %2, ptr %7, align 8, !tbaa !35
  call void @llvm.lifetime.start.p0(i64 8, ptr %8) #5
  call void @llvm.lifetime.start.p0(i64 8, ptr %9) #5
  call void @llvm.lifetime.start.p0(i64 4, ptr %10) #5
  %12 = load ptr, ptr %5, align 8, !tbaa !3
  %13 = icmp eq ptr %12, null
  br i1 %13, label %14, label %15

14:                                               ; preds = %3
  call void (ptr, i32, ptr, ptr, ptr, ...) @IDAProcessError(ptr noundef null, i32 noundef -1, ptr noundef @.str, ptr noundef @.str.15, ptr noundef @.str.2)
  store i32 -1, ptr %4, align 4
  store i32 1, ptr %11, align 4
  br label %80

15:                                               ; preds = %3
  %16 = load ptr, ptr %5, align 8, !tbaa !3
  store ptr %16, ptr %8, align 8, !tbaa !9
  %17 = load ptr, ptr %8, align 8, !tbaa !9
  %18 = getelementptr inbounds nuw %struct.IDAMemRec, ptr %17, i32 0, i32 176
  %19 = load ptr, ptr %18, align 8, !tbaa !11
  %20 = icmp eq ptr %19, null
  br i1 %20, label %21, label %23

21:                                               ; preds = %15
  %22 = load ptr, ptr %8, align 8, !tbaa !9
  call void (ptr, i32, ptr, ptr, ptr, ...) @IDAProcessError(ptr noundef %22, i32 noundef -2, ptr noundef @.str, ptr noundef @.str.15, ptr noundef @.str.3)
  store i32 -2, ptr %4, align 4
  store i32 1, ptr %11, align 4
  br label %80

23:                                               ; preds = %15
  %24 = load ptr, ptr %8, align 8, !tbaa !9
  %25 = getelementptr inbounds nuw %struct.IDAMemRec, ptr %24, i32 0, i32 176
  %26 = load ptr, ptr %25, align 8, !tbaa !11
  store ptr %26, ptr %9, align 8, !tbaa !21
  %27 = load ptr, ptr %9, align 8, !tbaa !21
  %28 = getelementptr inbounds nuw %struct.IDASpilsMemRec, ptr %27, i32 0, i32 0
  %29 = load i32, ptr %28, align 8, !tbaa !23
  switch i32 %29, label %79 [
    i32 1, label %30
    i32 2, label %57
    i32 3, label %68
  ]

30:                                               ; preds = %23
  %31 = load ptr, ptr %9, align 8, !tbaa !21
  %32 = getelementptr inbounds nuw %struct.IDASpilsMemRec, ptr %31, i32 0, i32 3
  %33 = load i32, ptr %32, align 8, !tbaa !27
  store i32 %33, ptr %10, align 4, !tbaa !7
  %34 = load ptr, ptr %8, align 8, !tbaa !9
  %35 = getelementptr inbounds nuw %struct.IDAMemRec, ptr %34, i32 0, i32 149
  %36 = load i64, ptr %35, align 8, !tbaa !37
  %37 = load i32, ptr %10, align 4, !tbaa !7
  %38 = add nsw i32 %37, 6
  %39 = sext i32 %38 to i64
  %40 = mul nsw i64 %36, %39
  %41 = load i32, ptr %10, align 4, !tbaa !7
  %42 = load i32, ptr %10, align 4, !tbaa !7
  %43 = add nsw i32 %42, 4
  %44 = mul nsw i32 %41, %43
  %45 = sext i32 %44 to i64
  %46 = add nsw i64 %40, %45
  %47 = add nsw i64 %46, 1
  %48 = load ptr, ptr %6, align 8, !tbaa !35
  store i64 %47, ptr %48, align 8, !tbaa !38
  %49 = load ptr, ptr %8, align 8, !tbaa !9
  %50 = getelementptr inbounds nuw %struct.IDAMemRec, ptr %49, i32 0, i32 150
  %51 = load i64, ptr %50, align 8, !tbaa !39
  %52 = load i32, ptr %10, align 4, !tbaa !7
  %53 = add nsw i32 %52, 6
  %54 = sext i32 %53 to i64
  %55 = mul nsw i64 %51, %54
  %56 = load ptr, ptr %7, align 8, !tbaa !35
  store i64 %55, ptr %56, align 8, !tbaa !38
  br label %79

57:                                               ; preds = %23
  %58 = load ptr, ptr %8, align 8, !tbaa !9
  %59 = getelementptr inbounds nuw %struct.IDAMemRec, ptr %58, i32 0, i32 149
  %60 = load i64, ptr %59, align 8, !tbaa !37
  %61 = mul nsw i64 %60, 10
  %62 = load ptr, ptr %6, align 8, !tbaa !35
  store i64 %61, ptr %62, align 8, !tbaa !38
  %63 = load ptr, ptr %8, align 8, !tbaa !9
  %64 = getelementptr inbounds nuw %struct.IDAMemRec, ptr %63, i32 0, i32 150
  %65 = load i64, ptr %64, align 8, !tbaa !39
  %66 = mul nsw i64 %65, 10
  %67 = load ptr, ptr %7, align 8, !tbaa !35
  store i64 %66, ptr %67, align 8, !tbaa !38
  br label %79

68:                                               ; preds = %23
  %69 = load ptr, ptr %8, align 8, !tbaa !9
  %70 = getelementptr inbounds nuw %struct.IDAMemRec, ptr %69, i32 0, i32 149
  %71 = load i64, ptr %70, align 8, !tbaa !37
  %72 = mul nsw i64 %71, 13
  %73 = load ptr, ptr %6, align 8, !tbaa !35
  store i64 %72, ptr %73, align 8, !tbaa !38
  %74 = load ptr, ptr %8, align 8, !tbaa !9
  %75 = getelementptr inbounds nuw %struct.IDAMemRec, ptr %74, i32 0, i32 150
  %76 = load i64, ptr %75, align 8, !tbaa !39
  %77 = mul nsw i64 %76, 13
  %78 = load ptr, ptr %7, align 8, !tbaa !35
  store i64 %77, ptr %78, align 8, !tbaa !38
  br label %79

79:                                               ; preds = %23, %68, %57, %30
  store i32 0, ptr %4, align 4
  store i32 1, ptr %11, align 4
  br label %80

80:                                               ; preds = %79, %21, %14
  call void @llvm.lifetime.end.p0(i64 4, ptr %10) #5
  call void @llvm.lifetime.end.p0(i64 8, ptr %9) #5
  call void @llvm.lifetime.end.p0(i64 8, ptr %8) #5
  %81 = load i32, ptr %4, align 4
  ret i32 %81
}